; Function Attrs: nofree norecurse nosync nounwind sspstrong memory(read, inaccessiblemem: none) uwtable
define dso_local i64 @rb_shape_depth(ptr noundef readonly captures(none) %0) local_unnamed_addr #3 {
  %2 = getelementptr inbounds nuw i8, ptr %0, i64 28
  %3 = load i32, ptr %2, align 4, !tbaa !20
  %.not4 = icmp eq i32 %3, -1
  br i1 %.not4, label %._crit_edge, label %.lr.ph

.lr.ph:                                           ; preds = %1
  %4 = load ptr, ptr @rb_shape_tree_ptr, align 8, !tbaa !7
  %5 = load ptr, ptr %4, align 8, !tbaa !16
  %invariant.gep = getelementptr i8, ptr %5, i64 28
  br label %6

6:                                                ; preds = %.lr.ph, %6
  %7 = phi i32 [ %3, %.lr.ph ], [ %10, %6 ]
  %.05 = phi i64 [ 1, %.lr.ph ], [ %8, %6 ]
  %8 = add i64 %.05, 1
  %9 = zext i32 %7 to i64
  %gep = getelementptr %struct.rb_shape, ptr %invariant.gep, i64 %9
  %10 = load i32, ptr %gep, align 4, !tbaa !20
  %.not = icmp eq i32 %10, -1
  br i1 %.not, label %._crit_edge, label %6, !llvm.loop !26

._crit_edge:                                      ; preds = %6, %1
  %.0.lcssa = phi i64 [ 1, %1 ], [ %8, %6 ]
  ret i64 %.0.lcssa
}